; Function Attrs: nounwind uwtable
define internal void @_node_info_list_del(ptr noundef %0) #0 {
  %2 = alloca ptr, align 8
  call void @llvm.lifetime.start.p0(i64 8, ptr nonnull %2) #11
  store ptr %0, ptr %2, align 8
  %.not = icmp eq ptr %0, null
  br i1 %.not, label %8, label %3

3:                                                ; preds = %1
  %4 = getelementptr inbounds nuw i8, ptr %0, i64 96
  tail call void @slurm_xfree(ptr noundef nonnull %4) #11
  tail call void @slurm_xfree(ptr noundef nonnull %0) #11
  %5 = getelementptr inbounds nuw i8, ptr %0, i64 56
  tail call void @slurm_xfree(ptr noundef nonnull %5) #11
  %6 = getelementptr inbounds nuw i8, ptr %0, i64 88
  tail call void @slurm_xfree(ptr noundef nonnull %6) #11
  %7 = getelementptr inbounds nuw i8, ptr %0, i64 80
  tail call void @slurm_xfree(ptr noundef nonnull %7) #11
  call void @slurm_xfree(ptr noundef nonnull %2) #11
  br label %8

8:                                                ; preds = %3, %1
  call void @llvm.lifetime.end.p0(i64 8, ptr nonnull %2) #11
  ret void
}